target datalayout = "e-m:e-p270:32:32-p271:32:32-p272:64:64-i64:64-i128:128-f80:128-n8:16:32:64-S128"
target triple = "x86_64-pc-linux-gnu"

%"class.ODDLParser::IOStreamBase" = type { ptr, ptr, ptr }

; Function Attrs: mustprogress uwtable
define hidden noundef zeroext i1 @_ZN10ODDLParser12IOStreamBase5closeEv(ptr noundef nonnull align 8 dereferenceable(24) %0) unnamed_addr #2 align 2 {
  %2 = alloca i1, align 1
  %3 = alloca ptr, align 8
  store ptr %0, ptr %3, align 8
  %4 = load ptr, ptr %3, align 8
  %5 = getelementptr inbounds nuw %"class.ODDLParser::IOStreamBase", ptr %4, i32 0, i32 2
  %6 = load ptr, ptr %5, align 8
  %7 = icmp eq ptr null, %6
  br i1 %7, label %8, label %9

8:                                                ; preds = %1
  store i1 false, ptr %2, align 1
  br label %14

9:                                                ; preds = %1
  %10 = getelementptr inbounds nuw %"class.ODDLParser::IOStreamBase", ptr %4, i32 0, i32 2
  %11 = load ptr, ptr %10, align 8
  %12 = call i32 @fclose(ptr noundef %11)
  %13 = getelementptr inbounds nuw %"class.ODDLParser::IOStreamBase", ptr %4, i32 0, i32 2
  store ptr null, ptr %13, align 8
  store i1 true, ptr %2, align 1
  br label %14

14:                                               ; preds = %9, %8
  %15 = load i1, ptr %2, align 1
  ret i1 %15
}