; Function Attrs: mustprogress nofree nounwind uwtable
define hidden noundef zeroext i1 @_ZN10ODDLParser12IOStreamBase5closeEv(ptr noundef nonnull align 8 captures(none) dereferenceable(24) %0) unnamed_addr #6 align 2 {
  %2 = getelementptr inbounds nuw i8, ptr %0, i64 16
  %3 = load ptr, ptr %2, align 8
  %4 = icmp ne ptr %3, null
  br i1 %4, label %5, label %7

5:                                                ; preds = %1
  %6 = tail call i32 @fclose(ptr noundef nonnull %3)
  store ptr null, ptr %2, align 8
  br label %7

7:                                                ; preds = %1, %5
  ret i1 %4
}